target datalayout = "e-m:e-p270:32:32-p271:32:32-p272:64:64-i64:64-i128:128-f80:128-n8:16:32:64-S128"
target triple = "x86_64-pc-linux-gnu"

%"struct.absl::base_internal::ThreadIdentity" = type { %"struct.absl::base_internal::PerThreadSynch", %"struct.absl::base_internal::ThreadIdentity::WaiterState", ptr, %"struct.std::atomic.0", %"struct.std::atomic.0", %"struct.std::atomic.1", ptr }
%"struct.absl::base_internal::PerThreadSynch" = type { ptr, ptr, i8, i8, i8, i8, i8, i32, %"struct.std::atomic", ptr, i64, i64, ptr }
%"struct.std::atomic" = type { i32 }
%"struct.absl::base_internal::ThreadIdentity::WaiterState" = type { [256 x i8] }
%"struct.std::atomic.0" = type { %"struct.std::__atomic_base" }
%"struct.std::__atomic_base" = type { i32 }
%"struct.std::atomic.1" = type { %"struct.std::__atomic_base.2" }
%"struct.std::__atomic_base.2" = type { i8 }

; Function Attrs: noinline noreturn nounwind uwtable
define linkonce_odr hidden void @__clang_call_terminate(ptr noundef %0) #6 comdat {
  %2 = call ptr @__cxa_begin_catch(ptr %0) #9
  call void @_ZSt9terminatev() #10
  unreachable
}

; Function Attrs: alwaysinline mustprogress nounwind uwtable
define linkonce_odr dso_local void @_ZNSt13__atomic_baseIbE5storeEbSt12memory_order(ptr noundef nonnull align 1 dereferenceable(1) %0, i1 noundef zeroext %1, i32 noundef %2) #2 comdat align 2 personality ptr @__gxx_personality_v0 {
  %4 = alloca ptr, align 8
  %5 = alloca i8, align 1
  %6 = alloca i32, align 4
  %7 = alloca i32, align 4
  %8 = alloca i8, align 1
  store ptr %0, ptr %4, align 8, !tbaa !38
  %9 = zext i1 %1 to i8
  store i8 %9, ptr %5, align 1, !tbaa !17
  store i32 %2, ptr %6, align 4, !tbaa !13
  %10 = load ptr, ptr %4, align 8
  call void @llvm.lifetime.start.p0(i64 4, ptr %7) #9
  %11 = load i32, ptr %6, align 4, !tbaa !13
  %12 = invoke noundef i32 @_ZStanSt12memory_orderSt23__memory_order_modifier(i32 noundef %11, i32 noundef 65535)
          to label %13 unwind label %35

13:                                               ; preds = %3
  store i32 %12, ptr %7, align 4, !tbaa !13
  br label %14

14:                                               ; preds = %13
  br label %15

15:                                               ; preds = %14
  br label %16

16:                                               ; preds = %15
  br label %17

17:                                               ; preds = %16
  br label %18

18:                                               ; preds = %17
  br label %19

19:                                               ; preds = %18
  br label %20

20:                                               ; preds = %19
  br label %21

21:                                               ; preds = %20
  br label %22

22:                                               ; preds = %21
  %23 = getelementptr inbounds nuw %"struct.std::__atomic_base.2", ptr %10, i32 0, i32 0
  %24 = load i32, ptr %6, align 4, !tbaa !13
  %25 = load i8, ptr %5, align 1, !tbaa !17, !range !19, !noundef !20
  %26 = trunc i8 %25 to i1
  %27 = zext i1 %26 to i8
  store i8 %27, ptr %8, align 1, !tbaa !17
  switch i32 %24, label %28 [
    i32 3, label %30
    i32 5, label %32
  ]

28:                                               ; preds = %22
  %29 = load i8, ptr %8, align 1
  store atomic i8 %29, ptr %23 monotonic, align 1
  br label %34

30:                                               ; preds = %22
  %31 = load i8, ptr %8, align 1
  store atomic i8 %31, ptr %23 release, align 1
  br label %34

32:                                               ; preds = %22
  %33 = load i8, ptr %8, align 1
  store atomic i8 %33, ptr %23 seq_cst, align 1
  br label %34

34:                                               ; preds = %32, %30, %28
  call void @llvm.lifetime.end.p0(i64 4, ptr %7) #9
  ret void

35:                                               ; preds = %3
  %36 = landingpad { ptr, i32 }
          catch ptr null
  %37 = extractvalue { ptr, i32 } %36, 0
  call void @__clang_call_terminate(ptr %37) #10
  unreachable
}

; Function Attrs: mustprogress nounwind uwtable
define linkonce_odr dso_local noundef i32 @_ZStanSt12memory_orderSt23__memory_order_modifier(i32 noundef %0, i32 noundef %1) #3 comdat {
  %3 = alloca i32, align 4
  %4 = alloca i32, align 4
  store i32 %0, ptr %3, align 4, !tbaa !13
  store i32 %1, ptr %4, align 4, !tbaa !40
  %5 = load i32, ptr %3, align 4, !tbaa !13
  %6 = load i32, ptr %4, align 4, !tbaa !40
  %7 = and i32 %5, %6
  ret i32 %7
}

; Function Attrs: mustprogress nounwind uwtable
define linkonce_odr dso_local void @_ZNSt6atomicIbE5storeEbSt12memory_order(ptr noundef nonnull align 1 dereferenceable(1) %0, i1 noundef zeroext %1, i32 noundef %2) #3 comdat align 2 {
  %4 = alloca ptr, align 8
  %5 = alloca i8, align 1
  %6 = alloca i32, align 4
  store ptr %0, ptr %4, align 8, !tbaa !15
  %7 = zext i1 %1 to i8
  store i8 %7, ptr %5, align 1, !tbaa !17
  store i32 %2, ptr %6, align 4, !tbaa !13
  %8 = load ptr, ptr %4, align 8
  %9 = getelementptr inbounds nuw %"struct.std::atomic.1", ptr %8, i32 0, i32 0
  %10 = load i8, ptr %5, align 1, !tbaa !17, !range !19, !noundef !20
  %11 = trunc i8 %10 to i1
  %12 = load i32, ptr %6, align 4, !tbaa !13
  call void @_ZNSt13__atomic_baseIbE5storeEbSt12memory_order(ptr noundef nonnull align 1 dereferenceable(1) %9, i1 noundef zeroext %11, i32 noundef %12) #9
  ret void
}

; Function Attrs: alwaysinline mustprogress nounwind uwtable
define linkonce_odr dso_local void @_ZNSt13__atomic_baseIiE5storeEiSt12memory_order(ptr noundef nonnull align 4 dereferenceable(4) %0, i32 noundef %1, i32 noundef %2) #2 comdat align 2 {
  %4 = alloca ptr, align 8
  %5 = alloca i32, align 4
  %6 = alloca i32, align 4
  %7 = alloca i32, align 4
  %8 = alloca i32, align 4
  store ptr %0, ptr %4, align 8, !tbaa !9
  store i32 %1, ptr %5, align 4, !tbaa !11
  store i32 %2, ptr %6, align 4, !tbaa !13
  %9 = load ptr, ptr %4, align 8
  call void @llvm.lifetime.start.p0(i64 4, ptr %7) #9
  %10 = load i32, ptr %6, align 4, !tbaa !13
  %11 = call noundef i32 @_ZStanSt12memory_orderSt23__memory_order_modifier(i32 noundef %10, i32 noundef 65535)
  store i32 %11, ptr %7, align 4, !tbaa !13
  br label %12

12:                                               ; preds = %3
  br label %13

13:                                               ; preds = %12
  br label %14

14:                                               ; preds = %13
  br label %15

15:                                               ; preds = %14
  br label %16

16:                                               ; preds = %15
  br label %17

17:                                               ; preds = %16
  br label %18

18:                                               ; preds = %17
  br label %19

19:                                               ; preds = %18
  br label %20

20:                                               ; preds = %19
  %21 = getelementptr inbounds nuw %"struct.std::__atomic_base", ptr %9, i32 0, i32 0
  %22 = load i32, ptr %6, align 4, !tbaa !13
  %23 = load i32, ptr %5, align 4, !tbaa !11
  store i32 %23, ptr %8, align 4, !tbaa !11
  switch i32 %22, label %24 [
    i32 3, label %26
    i32 5, label %28
  ]

24:                                               ; preds = %20
  %25 = load i32, ptr %8, align 4
  store atomic i32 %25, ptr %21 monotonic, align 4
  br label %30

26:                                               ; preds = %20
  %27 = load i32, ptr %8, align 4
  store atomic i32 %27, ptr %21 release, align 4
  br label %30

28:                                               ; preds = %20
  %29 = load i32, ptr %8, align 4
  store atomic i32 %29, ptr %21 seq_cst, align 4
  br label %30

30:                                               ; preds = %28, %26, %24
  call void @llvm.lifetime.end.p0(i64 4, ptr %7) #9
  ret void
}

; Function Attrs: inlinehint mustprogress uwtable
define linkonce_odr dso_local void @_ZN4absl24synchronization_internal12PerThreadSem4InitEPNS_13base_internal14ThreadIdentityE(ptr noundef %0) #1 comdat align 2 {
  %2 = alloca ptr, align 8
  store ptr %0, ptr %2, align 8, !tbaa !4
  %3 = load ptr, ptr %2, align 8, !tbaa !4
  call void @AbslInternalPerThreadSemInit(ptr noundef %3)
  ret void
}

; Function Attrs: mustprogress uwtable
define dso_local void @_ZN4absl24synchronization_internal25OneTimeInitThreadIdentityEPNS_13base_internal14ThreadIdentityE(ptr noundef %0) #0 {
  %2 = alloca ptr, align 8
  store ptr %0, ptr %2, align 8, !tbaa !4
  %3 = load ptr, ptr %2, align 8, !tbaa !4
  call void @_ZN4absl24synchronization_internal12PerThreadSem4InitEPNS_13base_internal14ThreadIdentityE(ptr noundef %3)
  %4 = load ptr, ptr %2, align 8, !tbaa !4
  %5 = getelementptr inbounds nuw %"struct.absl::base_internal::ThreadIdentity", ptr %4, i32 0, i32 3
  call void @_ZNSt13__atomic_baseIiE5storeEiSt12memory_order(ptr noundef nonnull align 4 dereferenceable(4) %5, i32 noundef 0, i32 noundef 0) #9
  %6 = load ptr, ptr %2, align 8, !tbaa !4
  %7 = getelementptr inbounds nuw %"struct.absl::base_internal::ThreadIdentity", ptr %6, i32 0, i32 4
  call void @_ZNSt13__atomic_baseIiE5storeEiSt12memory_order(ptr noundef nonnull align 4 dereferenceable(4) %7, i32 noundef 0, i32 noundef 0) #9
  %8 = load ptr, ptr %2, align 8, !tbaa !4
  %9 = getelementptr inbounds nuw %"struct.absl::base_internal::ThreadIdentity", ptr %8, i32 0, i32 5
  call void @_ZNSt6atomicIbE5storeEbSt12memory_order(ptr noundef nonnull align 1 dereferenceable(1) %9, i1 noundef zeroext false, i32 noundef 0) #9
  ret void
}