; Function Attrs: mustprogress uwtable
define dso_local void @_ZN4absl24synchronization_internal25OneTimeInitThreadIdentityEPNS_13base_internal14ThreadIdentityE(ptr noundef %0) local_unnamed_addr #0 personality ptr @__gxx_personality_v0 {
  tail call void @AbslInternalPerThreadSemInit(ptr noundef %0)
  %2 = getelementptr inbounds nuw i8, ptr %0, i64 328
  store atomic i32 0, ptr %2 monotonic, align 4
  %3 = getelementptr inbounds nuw i8, ptr %0, i64 332
  store atomic i32 0, ptr %3 monotonic, align 4
  %4 = getelementptr inbounds nuw i8, ptr %0, i64 336
  store atomic i8 0, ptr %4 monotonic, align 1
  ret void
}